target datalayout = "e-m:e-p270:32:32-p271:32:32-p272:64:64-i64:64-i128:128-f80:128-n8:16:32:64-S128"
target triple = "x86_64-pc-linux-gnu"

%"class.icu_77::MaybeStackArray" = type <{ ptr, i32, i8, [40 x i8], [3 x i8] }>
%"class.icu_77::UObject" = type { ptr }
%"class.icu_77::UnicodeString" = type { %"class.icu_77::Replaceable", %"union.icu_77::UnicodeString::StackBufferOrFields" }
%"class.icu_77::Replaceable" = type { %"class.icu_77::UObject" }
%"union.icu_77::UnicodeString::StackBufferOrFields" = type { %struct.anon.0, [32 x i8] }
%struct.anon.0 = type { i16, i32, i32, ptr }
%struct.anon = type { i16, [27 x i16] }
%"struct.icu_77::(anonymous namespace)::CalendarDataSink" = type { %"class.icu_77::ResourceSink", %"class.icu_77::Hashtable", %"class.icu_77::Hashtable", %"class.icu_77::Hashtable", %"class.icu_77::MemoryPool", %"class.icu_77::UVector", %"class.icu_77::UnicodeString", %"class.icu_77::UnicodeString", %"class.icu_77::LocalPointer", %"class.icu_77::UnicodeString" }
%"class.icu_77::ResourceSink" = type { %"class.icu_77::UObject" }
%"class.icu_77::Hashtable" = type { ptr, %struct.UHashtable }
%struct.UHashtable = type { ptr, ptr, ptr, ptr, ptr, ptr, i32, i32, i32, i32, float, float, i8, i8 }
%"class.icu_77::MemoryPool" = type { i32, %"class.icu_77::MaybeStackArray.3" }
%"class.icu_77::MaybeStackArray.3" = type { ptr, i32, i8, [8 x ptr] }
%"class.icu_77::UVector" = type { %"class.icu_77::UObject", i32, i32, ptr, ptr, ptr }
%"class.icu_77::LocalPointer" = type { %"class.icu_77::LocalPointerBase" }
%"class.icu_77::LocalPointerBase" = type { ptr }
%"class.icu_77::CharString" = type { %"class.icu_77::MaybeStackArray", i32, [4 x i8] }

@_ZTVN6icu_777UObjectE = available_externally unnamed_addr constant { [5 x ptr] } { [5 x ptr] [ptr null, ptr @_ZTIN6icu_777UObjectE, ptr @_ZN6icu_777UObjectD1Ev, ptr @_ZN6icu_777UObjectD0Ev, ptr @_ZNK6icu_777UObject17getDynamicClassIDEv] }, align 8

; Function Attrs: inlinehint mustprogress nounwind uwtable
define linkonce_odr void @_ZN6icu_777UObjectC2Ev(ptr noundef nonnull align 8 dereferenceable(8) %0) unnamed_addr #2 comdat align 2 {
  %2 = alloca ptr, align 8
  store ptr %0, ptr %2, align 8, !tbaa !48
  %3 = load ptr, ptr %2, align 8
  store ptr getelementptr inbounds inrange(-16, 24) ({ [5 x ptr] }, ptr @_ZTVN6icu_777UObjectE, i32 0, i32 0, i32 2), ptr %3, align 8, !tbaa !25
  ret void
}

; Function Attrs: inlinehint mustprogress uwtable
define internal void @_ZL14uprv_arrayCopyPKN6icu_7713UnicodeStringEPS0_i(ptr noundef %0, ptr noundef %1, i32 noundef %2) #3 {
  %4 = alloca ptr, align 8
  %5 = alloca ptr, align 8
  %6 = alloca i32, align 4
  store ptr %0, ptr %4, align 8, !tbaa !50
  store ptr %1, ptr %5, align 8, !tbaa !50
  store i32 %2, ptr %6, align 4, !tbaa !14
  br label %7

7:                                                ; preds = %11, %3
  %8 = load i32, ptr %6, align 4, !tbaa !14
  %9 = add nsw i32 %8, -1
  store i32 %9, ptr %6, align 4, !tbaa !14
  %10 = icmp sgt i32 %8, 0
  br i1 %10, label %11, label %17

11:                                               ; preds = %7
  %12 = load ptr, ptr %4, align 8, !tbaa !50
  %13 = getelementptr inbounds nuw %"class.icu_77::UnicodeString", ptr %12, i32 1
  store ptr %13, ptr %4, align 8, !tbaa !50
  %14 = load ptr, ptr %5, align 8, !tbaa !50
  %15 = getelementptr inbounds nuw %"class.icu_77::UnicodeString", ptr %14, i32 1
  store ptr %15, ptr %5, align 8, !tbaa !50
  %16 = call noundef nonnull align 8 dereferenceable(64) ptr @_ZN6icu_7713UnicodeStringaSERKS0_(ptr noundef nonnull align 8 dereferenceable(64) %14, ptr noundef nonnull align 8 dereferenceable(64) %12)
  br label %7, !llvm.loop !155

17:                                               ; preds = %7
  ret void
}

; Function Attrs: inlinehint mustprogress nounwind uwtable
define linkonce_odr void @_ZN6icu_7711ReplaceableC2Ev(ptr noundef nonnull align 8 dereferenceable(8) %0) unnamed_addr #2 comdat align 2 {
  %2 = alloca ptr, align 8
  store ptr %0, ptr %2, align 8, !tbaa !218
  %3 = load ptr, ptr %2, align 8
  call void @_ZN6icu_777UObjectC2Ev(ptr noundef nonnull align 8 dereferenceable(8) %3) #14
  store ptr getelementptr inbounds inrange(-16, 88) ({ [13 x ptr] }, ptr @_ZTVN6icu_7711ReplaceableE, i32 0, i32 0, i32 2), ptr %3, align 8, !tbaa !25
  ret void
}

; Function Attrs: mustprogress nounwind uwtable
define weak_odr noundef ptr @_ZNK6icu_7715MaybeStackArrayIcLi40EE8getAliasEv(ptr noundef nonnull align 8 dereferenceable(53) %0) #0 comdat align 2 {
  %2 = alloca ptr, align 8
  store ptr %0, ptr %2, align 8, !tbaa !3
  %3 = load ptr, ptr %2, align 8
  %4 = getelementptr inbounds nuw %"class.icu_77::MaybeStackArray", ptr %3, i32 0, i32 0
  %5 = load ptr, ptr %4, align 8, !tbaa !8
  ret ptr %5
}

; Function Attrs: inlinehint mustprogress uwtable
define internal void @_ZL14uprv_arrayCopyPKN6icu_7713UnicodeStringEiPS0_ii(ptr noundef %0, i32 noundef %1, ptr noundef %2, i32 noundef %3, i32 noundef %4) #3 {
  %6 = alloca ptr, align 8
  %7 = alloca i32, align 4
  %8 = alloca ptr, align 8
  %9 = alloca i32, align 4
  %10 = alloca i32, align 4
  store ptr %0, ptr %6, align 8, !tbaa !50
  store i32 %1, ptr %7, align 4, !tbaa !14
  store ptr %2, ptr %8, align 8, !tbaa !50
  store i32 %3, ptr %9, align 4, !tbaa !14
  store i32 %4, ptr %10, align 4, !tbaa !14
  %11 = load ptr, ptr %6, align 8, !tbaa !50
  %12 = load i32, ptr %7, align 4, !tbaa !14
  %13 = sext i32 %12 to i64
  %14 = getelementptr inbounds %"class.icu_77::UnicodeString", ptr %11, i64 %13
  %15 = load ptr, ptr %8, align 8, !tbaa !50
  %16 = load i32, ptr %9, align 4, !tbaa !14
  %17 = sext i32 %16 to i64
  %18 = getelementptr inbounds %"class.icu_77::UnicodeString", ptr %15, i64 %17
  %19 = load i32, ptr %10, align 4, !tbaa !14
  call void @_ZL14uprv_arrayCopyPKN6icu_7713UnicodeStringEPS0_i(ptr noundef %14, ptr noundef %18, i32 noundef %19)
  ret void
}

; Function Attrs: inlinehint mustprogress uwtable
define linkonce_odr void @_ZN6icu_7713UnicodeStringC2Ev(ptr noundef nonnull align 8 dereferenceable(64) %0) unnamed_addr #3 comdat align 2 {
  %2 = alloca ptr, align 8
  store ptr %0, ptr %2, align 8, !tbaa !50
  %3 = load ptr, ptr %2, align 8
  call void @_ZN6icu_7711ReplaceableC2Ev(ptr noundef nonnull align 8 dereferenceable(8) %3)
  store ptr getelementptr inbounds inrange(-16, 88) ({ [13 x ptr] }, ptr @_ZTVN6icu_7713UnicodeStringE, i32 0, i32 0, i32 2), ptr %3, align 8, !tbaa !25
  %4 = getelementptr inbounds nuw %"class.icu_77::UnicodeString", ptr %3, i32 0, i32 1
  %5 = getelementptr inbounds nuw %struct.anon, ptr %4, i32 0, i32 0
  store i16 2, ptr %5, align 8, !tbaa !51
  ret void
}

; Function Attrs: inlinehint mustprogress uwtable
define linkonce_odr noundef i32 @_ZNK6icu_779Hashtable4getiERKNS_13UnicodeStringE(ptr noundef nonnull align 8 dereferenceable(88) %0, ptr noundef nonnull align 8 dereferenceable(64) %1) #3 comdat align 2 {
  %3 = alloca ptr, align 8
  %4 = alloca ptr, align 8
  store ptr %0, ptr %3, align 8, !tbaa !187
  store ptr %1, ptr %4, align 8, !tbaa !50
  %5 = load ptr, ptr %3, align 8
  %6 = getelementptr inbounds nuw %"class.icu_77::Hashtable", ptr %5, i32 0, i32 0
  %7 = load ptr, ptr %6, align 8, !tbaa !222
  %8 = load ptr, ptr %4, align 8, !tbaa !50
  %9 = call i32 @uhash_geti_77(ptr noundef %7, ptr noundef %8)
  ret i32 %9
}

; Function Attrs: inlinehint mustprogress uwtable
define linkonce_odr noundef ptr @_ZNK6icu_779Hashtable3getERKNS_13UnicodeStringE(ptr noundef nonnull align 8 dereferenceable(88) %0, ptr noundef nonnull align 8 dereferenceable(64) %1) #3 comdat align 2 {
  %3 = alloca ptr, align 8
  %4 = alloca ptr, align 8
  store ptr %0, ptr %3, align 8, !tbaa !187
  store ptr %1, ptr %4, align 8, !tbaa !50
  %5 = load ptr, ptr %3, align 8
  %6 = getelementptr inbounds nuw %"class.icu_77::Hashtable", ptr %5, i32 0, i32 0
  %7 = load ptr, ptr %6, align 8, !tbaa !222
  %8 = load ptr, ptr %4, align 8, !tbaa !50
  %9 = call ptr @uhash_get_77(ptr noundef %7, ptr noundef %8)
  ret ptr %9
}

; Function Attrs: mustprogress nounwind uwtable
define linkonce_odr noundef ptr @_ZN6icu_7710CharString4dataEv(ptr noundef nonnull align 8 dereferenceable(60) %0) #0 comdat align 2 {
  %2 = alloca ptr, align 8
  store ptr %0, ptr %2, align 8, !tbaa !142
  %3 = load ptr, ptr %2, align 8
  %4 = getelementptr inbounds nuw %"class.icu_77::CharString", ptr %3, i32 0, i32 0
  %5 = call noundef ptr @_ZNK6icu_7715MaybeStackArrayIcLi40EE8getAliasEv(ptr noundef nonnull align 8 dereferenceable(53) %4)
  ret ptr %5
}

; Function Attrs: inlinehint mustprogress nounwind uwtable
define internal noundef signext i8 @_ZL9U_SUCCESS10UErrorCode(i32 noundef %0) #2 {
  %2 = alloca i32, align 4
  store i32 %0, ptr %2, align 4, !tbaa !15
  %3 = load i32, ptr %2, align 4, !tbaa !15
  %4 = icmp sle i32 %3, 0
  %5 = zext i1 %4 to i8
  ret i8 %5
}

; Function Attrs: mustprogress uwtable
define internal void @_ZN6icu_77L9initFieldEPPNS_13UnicodeStringERiRNS_12_GLOBAL__N_116CalendarDataSinkERNS_10CharStringEiR10UErrorCode(ptr noundef %0, ptr noundef nonnull align 4 dereferenceable(4) %1, ptr noundef nonnull align 8 dereferenceable(600) %2, ptr noundef nonnull align 8 dereferenceable(60) %3, i32 noundef %4, ptr noundef nonnull align 4 dereferenceable(4) %5) #1 personality ptr @__gxx_personality_v0 {
  %7 = alloca ptr, align 8
  %8 = alloca ptr, align 8
  %9 = alloca ptr, align 8
  %10 = alloca ptr, align 8
  %11 = alloca i32, align 4
  %12 = alloca ptr, align 8
  %13 = alloca %"class.icu_77::UnicodeString", align 8
  %14 = alloca ptr, align 8
  %15 = alloca ptr, align 8
  %16 = alloca i32, align 4
  %17 = alloca i32, align 4
  %18 = alloca ptr, align 8
  %19 = alloca i64, align 8
  %20 = alloca i1, align 1
  %21 = alloca ptr, align 8
  %22 = alloca ptr, align 8
  %23 = alloca i1, align 1
  %24 = alloca i32, align 4
  store ptr %0, ptr %7, align 8, !tbaa !133
  store ptr %1, ptr %8, align 8, !tbaa !20
  store ptr %2, ptr %9, align 8, !tbaa !168
  store ptr %3, ptr %10, align 8, !tbaa !142
  store i32 %4, ptr %11, align 4, !tbaa !14
  store ptr %5, ptr %12, align 8, !tbaa !22
  %25 = load ptr, ptr %12, align 8, !tbaa !22
  %26 = load i32, ptr %25, align 4, !tbaa !15
  %27 = call noundef signext i8 @_ZL9U_SUCCESS10UErrorCode(i32 noundef %26)
  %28 = icmp ne i8 %27, 0
  br i1 %28, label %29, label %125

29:                                               ; preds = %6
  call void @llvm.lifetime.start.p0(i64 64, ptr %13) #14
  %30 = load ptr, ptr %10, align 8, !tbaa !142
  %31 = call noundef ptr @_ZN6icu_7710CharString4dataEv(ptr noundef nonnull align 8 dereferenceable(60) %30)
  call void @_ZN6icu_7713UnicodeStringC1EPKciNS0_10EInvariantE(ptr noundef nonnull align 8 dereferenceable(64) %13, ptr noundef %31, i32 noundef -1, i32 noundef 0)
  call void @llvm.lifetime.start.p0(i64 8, ptr %14) #14
  %32 = load ptr, ptr %9, align 8, !tbaa !168
  %33 = getelementptr inbounds nuw %"struct.icu_77::(anonymous namespace)::CalendarDataSink", ptr %32, i32 0, i32 1
  %34 = invoke noundef ptr @_ZNK6icu_779Hashtable3getERKNS_13UnicodeStringE(ptr noundef nonnull align 8 dereferenceable(88) %33, ptr noundef nonnull align 8 dereferenceable(64) %13)
          to label %35 unwind label %79

35:                                               ; preds = %29
  store ptr %34, ptr %14, align 8, !tbaa !50
  %36 = load ptr, ptr %14, align 8, !tbaa !50
  %37 = icmp ne ptr %36, null
  br i1 %37, label %38, label %117

38:                                               ; preds = %35
  call void @llvm.lifetime.start.p0(i64 4, ptr %17) #14
  %39 = load ptr, ptr %9, align 8, !tbaa !168
  %40 = getelementptr inbounds nuw %"struct.icu_77::(anonymous namespace)::CalendarDataSink", ptr %39, i32 0, i32 2
  %41 = invoke noundef i32 @_ZNK6icu_779Hashtable4getiERKNS_13UnicodeStringE(ptr noundef nonnull align 8 dereferenceable(88) %40, ptr noundef nonnull align 8 dereferenceable(64) %13)
          to label %42 unwind label %83

42:                                               ; preds = %38
  store i32 %41, ptr %17, align 4, !tbaa !14
  %43 = load i32, ptr %17, align 4, !tbaa !14
  %44 = load i32, ptr %11, align 4, !tbaa !14
  %45 = add nsw i32 %43, %44
  %46 = load ptr, ptr %8, align 8, !tbaa !20
  store i32 %45, ptr %46, align 4, !tbaa !14
  %47 = load ptr, ptr %8, align 8, !tbaa !20
  %48 = load i32, ptr %47, align 4, !tbaa !14
  %49 = sext i32 %48 to i64
  %50 = call { i64, i1 } @llvm.umul.with.overflow.i64(i64 %49, i64 64)
  %51 = extractvalue { i64, i1 } %50, 1
  %52 = extractvalue { i64, i1 } %50, 0
  %53 = call { i64, i1 } @llvm.uadd.with.overflow.i64(i64 %52, i64 8)
  %54 = extractvalue { i64, i1 } %53, 1
  %55 = or i1 %51, %54
  %56 = extractvalue { i64, i1 } %53, 0
  %57 = select i1 %55, i64 -1, i64 %56
  %58 = call noundef ptr @_ZN6icu_777UMemorynaEm(i64 noundef %57) #14
  %59 = icmp eq ptr %58, null
  store i1 false, ptr %20, align 1
  store i1 false, ptr %23, align 1
  br i1 %59, label %71, label %60

60:                                               ; preds = %42
  store ptr %58, ptr %18, align 8
  store i64 %57, ptr %19, align 8
  store i1 true, ptr %20, align 1
  store i64 %49, ptr %58, align 8
  %61 = getelementptr inbounds i8, ptr %58, i64 8
  %62 = icmp eq i64 %49, 0
  br i1 %62, label %70, label %63

63:                                               ; preds = %60
  %64 = getelementptr inbounds %"class.icu_77::UnicodeString", ptr %61, i64 %49
  br label %65

65:                                               ; preds = %67, %63
  %66 = phi ptr [ %61, %63 ], [ %68, %67 ]
  store ptr %61, ptr %21, align 8
  store ptr %66, ptr %22, align 8
  store i1 true, ptr %23, align 1
  invoke void @_ZN6icu_7713UnicodeStringC2Ev(ptr noundef nonnull align 8 dereferenceable(64) %66)
          to label %67 unwind label %87

67:                                               ; preds = %65
  %68 = getelementptr inbounds %"class.icu_77::UnicodeString", ptr %66, i64 1
  %69 = icmp eq ptr %68, %64
  br i1 %69, label %70, label %65

70:                                               ; preds = %60, %67
  br label %71

71:                                               ; preds = %70, %42
  %72 = phi ptr [ %61, %70 ], [ null, %42 ]
  %73 = load ptr, ptr %7, align 8, !tbaa !133
  store ptr %72, ptr %73, align 8, !tbaa !50
  %74 = load ptr, ptr %7, align 8, !tbaa !133
  %75 = load ptr, ptr %74, align 8, !tbaa !50
  %76 = icmp eq ptr %75, null
  br i1 %76, label %77, label %106

77:                                               ; preds = %71
  %78 = load ptr, ptr %12, align 8, !tbaa !22
  store i32 7, ptr %78, align 4, !tbaa !15
  store i32 1, ptr %24, align 4
  br label %113

79:                                               ; preds = %29
  %80 = landingpad { ptr, i32 }
          cleanup
  %81 = extractvalue { ptr, i32 } %80, 0
  store ptr %81, ptr %15, align 8
  %82 = extractvalue { ptr, i32 } %80, 1
  store i32 %82, ptr %16, align 4
  br label %124

83:                                               ; preds = %106, %38
  %84 = landingpad { ptr, i32 }
          cleanup
  %85 = extractvalue { ptr, i32 } %84, 0
  store ptr %85, ptr %15, align 8
  %86 = extractvalue { ptr, i32 } %84, 1
  store i32 %86, ptr %16, align 4
  br label %116

87:                                               ; preds = %65
  %88 = landingpad { ptr, i32 }
          cleanup
  %89 = extractvalue { ptr, i32 } %88, 0
  store ptr %89, ptr %15, align 8
  %90 = extractvalue { ptr, i32 } %88, 1
  store i32 %90, ptr %16, align 4
  %91 = load i1, ptr %23, align 1
  br i1 %91, label %92, label %101

92:                                               ; preds = %87
  %93 = load ptr, ptr %21, align 8
  %94 = load ptr, ptr %22, align 8
  %95 = icmp eq ptr %93, %94
  br i1 %95, label %100, label %96

96:                                               ; preds = %96, %92
  %97 = phi ptr [ %94, %92 ], [ %98, %96 ]
  %98 = getelementptr inbounds %"class.icu_77::UnicodeString", ptr %97, i64 -1
  call void @_ZN6icu_7713UnicodeStringD1Ev(ptr noundef nonnull align 8 dereferenceable(64) %98) #14
  %99 = icmp eq ptr %98, %93
  br i1 %99, label %100, label %96

100:                                              ; preds = %96, %92
  br label %101

101:                                              ; preds = %100, %87
  %102 = load i1, ptr %20, align 1
  br i1 %102, label %103, label %105

103:                                              ; preds = %101
  %104 = load ptr, ptr %18, align 8
  call void @_ZN6icu_777UMemorydaEPv(ptr noundef %104) #14
  br label %105

105:                                              ; preds = %103, %101
  br label %116

106:                                              ; preds = %71
  %107 = load ptr, ptr %14, align 8, !tbaa !50
  %108 = load ptr, ptr %7, align 8, !tbaa !133
  %109 = load ptr, ptr %108, align 8, !tbaa !50
  %110 = load i32, ptr %11, align 4, !tbaa !14
  %111 = load i32, ptr %17, align 4, !tbaa !14
  invoke void @_ZL14uprv_arrayCopyPKN6icu_7713UnicodeStringEiPS0_ii(ptr noundef %107, i32 noundef 0, ptr noundef %109, i32 noundef %110, i32 noundef %111)
          to label %112 unwind label %83

112:                                              ; preds = %106
  store i32 0, ptr %24, align 4
  br label %113

113:                                              ; preds = %112, %77
  call void @llvm.lifetime.end.p0(i64 4, ptr %17) #14
  %114 = load i32, ptr %24, align 4
  switch i32 %114, label %121 [
    i32 0, label %115
  ]

115:                                              ; preds = %113
  br label %120

116:                                              ; preds = %105, %83
  call void @llvm.lifetime.end.p0(i64 4, ptr %17) #14
  br label %124

117:                                              ; preds = %35
  %118 = load ptr, ptr %8, align 8, !tbaa !20
  store i32 0, ptr %118, align 4, !tbaa !14
  %119 = load ptr, ptr %12, align 8, !tbaa !22
  store i32 2, ptr %119, align 4, !tbaa !15
  br label %120

120:                                              ; preds = %117, %115
  store i32 0, ptr %24, align 4
  br label %121

121:                                              ; preds = %120, %113
  call void @llvm.lifetime.end.p0(i64 8, ptr %14) #14
  call void @_ZN6icu_7713UnicodeStringD1Ev(ptr noundef nonnull align 8 dereferenceable(64) %13) #14
  call void @llvm.lifetime.end.p0(i64 64, ptr %13) #14
  %122 = load i32, ptr %24, align 4
  switch i32 %122, label %131 [
    i32 0, label %123
    i32 1, label %125
  ]

123:                                              ; preds = %121
  br label %125

124:                                              ; preds = %116, %79
  call void @llvm.lifetime.end.p0(i64 8, ptr %14) #14
  call void @_ZN6icu_7713UnicodeStringD1Ev(ptr noundef nonnull align 8 dereferenceable(64) %13) #14
  call void @llvm.lifetime.end.p0(i64 64, ptr %13) #14
  br label %126

125:                                              ; preds = %121, %123, %6
  ret void

126:                                              ; preds = %124
  %127 = load ptr, ptr %15, align 8
  %128 = load i32, ptr %16, align 4
  %129 = insertvalue { ptr, i32 } poison, ptr %127, 0
  %130 = insertvalue { ptr, i32 } %129, i32 %128, 1
  resume { ptr, i32 } %130

131:                                              ; preds = %121
  unreachable
}