; Function Attrs: mustprogress uwtable
define internal fastcc void @_ZN6icu_77L9initFieldEPPNS_13UnicodeStringERiRNS_12_GLOBAL__N_116CalendarDataSinkERNS_10CharStringEiR10UErrorCode(ptr noundef nonnull writeonly captures(none) %0, ptr noundef nonnull writeonly align 4 captures(none) dereferenceable(4) %1, ptr noundef nonnull readonly align 8 captures(none) dereferenceable(600) %2, ptr %.0.val, ptr noundef nonnull align 4 captures(none) dereferenceable(4) %3) unnamed_addr #1 personality ptr @__gxx_personality_v0 {
  %5 = alloca %"class.icu_77::UnicodeString", align 8
  %6 = load i32, ptr %3, align 4, !tbaa !13
  %7 = icmp sgt i32 %6, 0
  br i1 %7, label %42, label %8

8:                                                ; preds = %4
  call void @llvm.lifetime.start.p0(i64 64, ptr nonnull %5) #19
  call void @_ZN6icu_7713UnicodeStringC1EPKciNS0_10EInvariantE(ptr noundef nonnull align 8 dereferenceable(64) %5, ptr noundef %.0.val, i32 noundef -1, i32 noundef 0)
  %9 = getelementptr inbounds nuw i8, ptr %2, i64 8
  %10 = load ptr, ptr %9, align 8, !tbaa !100
  %11 = invoke noundef ptr @uhash_get_77(ptr noundef %10, ptr noundef nonnull align 8 dereferenceable(64) %5)
          to label %_ZNK6icu_779Hashtable3getERKNS_13UnicodeStringE.exit unwind label %32

_ZNK6icu_779Hashtable3getERKNS_13UnicodeStringE.exit: ; preds = %8
  %.not34 = icmp eq ptr %11, null
  br i1 %.not34, label %40, label %12

12:                                               ; preds = %_ZNK6icu_779Hashtable3getERKNS_13UnicodeStringE.exit
  %13 = getelementptr inbounds nuw i8, ptr %2, i64 96
  %14 = load ptr, ptr %13, align 8, !tbaa !100
  %15 = invoke noundef i32 @uhash_geti_77(ptr noundef %14, ptr noundef nonnull align 8 dereferenceable(64) %5)
          to label %_ZNK6icu_779Hashtable4getiERKNS_13UnicodeStringE.exit unwind label %.loopexit.split-lp

_ZNK6icu_779Hashtable4getiERKNS_13UnicodeStringE.exit: ; preds = %12
  %16 = add nsw i32 %15, 1
  store i32 %16, ptr %1, align 4, !tbaa !12
  %17 = sext i32 %16 to i64
  %18 = icmp slt i32 %15, -1
  %19 = shl nsw i64 %17, 6
  %20 = or disjoint i64 %19, 8
  %21 = select i1 %18, i64 -1, i64 %20
  %22 = call noundef ptr @_ZN6icu_777UMemorynaEm(i64 noundef %21) #19
  %23 = icmp eq ptr %22, null
  br i1 %23, label %31, label %24

24:                                               ; preds = %_ZNK6icu_779Hashtable4getiERKNS_13UnicodeStringE.exit
  store i64 %17, ptr %22, align 8
  %.ptr36 = getelementptr inbounds nuw i8, ptr %22, i64 8
  %25 = icmp eq i32 %16, 0
  br i1 %25, label %.thread2, label %26

.thread2:                                         ; preds = %24
  store ptr %.ptr36, ptr %0, align 8, !tbaa !127
  br label %_ZL14uprv_arrayCopyPKN6icu_7713UnicodeStringEiPS0_ii.exit

26:                                               ; preds = %24
  %27 = getelementptr inbounds %"class.icu_77::UnicodeString", ptr %.ptr36, i64 %17
  br label %28

28:                                               ; preds = %26, %28
  %.idx = phi i64 [ 8, %26 ], [ %.add, %28 ]
  %.ptr.ptr = getelementptr inbounds nuw i8, ptr %22, i64 %.idx
  store ptr getelementptr inbounds nuw inrange(-16, 88) (i8, ptr @_ZTVN6icu_7713UnicodeStringE, i64 16), ptr %.ptr.ptr, align 8, !tbaa !15
  %29 = getelementptr inbounds nuw i8, ptr %.ptr.ptr, i64 8
  store i16 2, ptr %29, align 8, !tbaa !23
  %.add = add nuw nsw i64 %.idx, 64
  %.ptr35 = getelementptr inbounds nuw i8, ptr %22, i64 %.add
  %30 = icmp eq ptr %.ptr35, %27
  br i1 %30, label %34, label %28

31:                                               ; preds = %_ZNK6icu_779Hashtable4getiERKNS_13UnicodeStringE.exit
  store ptr null, ptr %0, align 8, !tbaa !127
  store i32 7, ptr %3, align 4, !tbaa !13
  br label %_ZL14uprv_arrayCopyPKN6icu_7713UnicodeStringEiPS0_ii.exit

32:                                               ; preds = %8
  %33 = landingpad { ptr, i32 }
          cleanup
  br label %41

.loopexit:                                        ; preds = %.lr.ph.i.i
  %lpad.loopexit = landingpad { ptr, i32 }
          cleanup
  br label %41

.loopexit.split-lp:                               ; preds = %12
  %lpad.loopexit.split-lp = landingpad { ptr, i32 }
          cleanup
  br label %41

34:                                               ; preds = %28
  store ptr %.ptr36, ptr %0, align 8, !tbaa !127
  %35 = icmp sgt i32 %15, 0
  br i1 %35, label %.lr.ph.i.i, label %_ZL14uprv_arrayCopyPKN6icu_7713UnicodeStringEiPS0_ii.exit

.lr.ph.i.i:                                       ; preds = %34, %.noexc
  %.06.i.i = phi i32 [ %38, %.noexc ], [ %15, %34 ]
  %.025.i.pn.i = phi ptr [ %.025.i.i, %.noexc ], [ %.ptr36, %34 ]
  %.034.i.i = phi ptr [ %37, %.noexc ], [ %11, %34 ]
  %.025.i.i = getelementptr inbounds nuw i8, ptr %.025.i.pn.i, i64 64
  %36 = invoke noundef nonnull align 8 dereferenceable(64) ptr @_ZN6icu_7713UnicodeStringaSERKS0_(ptr noundef nonnull align 8 dereferenceable(64) %.025.i.i, ptr noundef nonnull align 8 dereferenceable(64) %.034.i.i)
          to label %.noexc unwind label %.loopexit

.noexc:                                           ; preds = %.lr.ph.i.i
  %37 = getelementptr inbounds nuw i8, ptr %.034.i.i, i64 64
  %38 = add nsw i32 %.06.i.i, -1
  %39 = icmp samesign ugt i32 %.06.i.i, 1
  br i1 %39, label %.lr.ph.i.i, label %_ZL14uprv_arrayCopyPKN6icu_7713UnicodeStringEiPS0_ii.exit, !llvm.loop !158

40:                                               ; preds = %_ZNK6icu_779Hashtable3getERKNS_13UnicodeStringE.exit
  store i32 0, ptr %1, align 4, !tbaa !12
  store i32 2, ptr %3, align 4, !tbaa !13
  br label %_ZL14uprv_arrayCopyPKN6icu_7713UnicodeStringEiPS0_ii.exit

_ZL14uprv_arrayCopyPKN6icu_7713UnicodeStringEiPS0_ii.exit: ; preds = %.noexc, %34, %.thread2, %31, %40
  call void @_ZN6icu_7713UnicodeStringD1Ev(ptr noundef nonnull align 8 dereferenceable(64) %5) #19
  call void @llvm.lifetime.end.p0(i64 64, ptr nonnull %5) #19
  br label %42

41:                                               ; preds = %.loopexit, %.loopexit.split-lp, %32
  %.pn.pn = phi { ptr, i32 } [ %33, %32 ], [ %lpad.loopexit, %.loopexit ], [ %lpad.loopexit.split-lp, %.loopexit.split-lp ]
  call void @_ZN6icu_7713UnicodeStringD1Ev(ptr noundef nonnull align 8 dereferenceable(64) %5) #19
  call void @llvm.lifetime.end.p0(i64 64, ptr nonnull %5) #19
  resume { ptr, i32 } %.pn.pn

42:                                               ; preds = %_ZL14uprv_arrayCopyPKN6icu_7713UnicodeStringEiPS0_ii.exit, %4
  ret void
}